; Function Attrs: mustprogress uwtable
define hidden void @_ZN19OpenColorIO_v2_4dev21XmlReaderElementStack9push_backESt10shared_ptrINS_16XmlReaderElementEE(ptr noundef nonnull align 8 dereferenceable(32) %this, ptr noundef %pElt) local_unnamed_addr #4 align 2 personality ptr @__gxx_personality_v0 {
entry:
  %_M_finish.i = getelementptr inbounds i8, ptr %this, i64 16
  %0 = load ptr, ptr %_M_finish.i, align 8
  %_M_end_of_storage.i = getelementptr inbounds i8, ptr %this, i64 24
  %1 = load ptr, ptr %_M_end_of_storage.i, align 8
  %cmp.not.i = icmp eq ptr %0, %1
  br i1 %cmp.not.i, label %if.else.i, label %if.then.i

if.then.i:                                        ; preds = %entry
  %2 = load ptr, ptr %pElt, align 8
  store ptr %2, ptr %0, align 8
  %_M_refcount.i.i.i.i.i = getelementptr inbounds i8, ptr %0, i64 8
  %_M_refcount3.i.i.i.i.i = getelementptr inbounds i8, ptr %pElt, i64 8
  %3 = load ptr, ptr %_M_refcount3.i.i.i.i.i, align 8
  store ptr %3, ptr %_M_refcount.i.i.i.i.i, align 8
  %cmp.not.i.i.i.i.i.i = icmp eq ptr %3, null
  br i1 %cmp.not.i.i.i.i.i.i, label %_ZNSt16allocator_traitsISaISt10shared_ptrIN19OpenColorIO_v2_4dev16XmlReaderElementEEEE9constructIS3_JRKS3_EEEvRS4_PT_DpOT0_.exit.i, label %if.then.i.i.i.i.i.i

if.then.i.i.i.i.i.i:                              ; preds = %if.then.i
  %_M_use_count.i.i.i.i.i.i.i = getelementptr inbounds i8, ptr %3, i64 8
  %4 = load i8, ptr @__libc_single_threaded, align 1
  %tobool.i.i.not.i.i.i.i.i.i.i = icmp eq i8 %4, 0
  br i1 %tobool.i.i.not.i.i.i.i.i.i.i, label %if.else.i.i.i.i.i.i.i.i, label %if.then.i.i.i.i.i.i.i.i

if.then.i.i.i.i.i.i.i.i:                          ; preds = %if.then.i.i.i.i.i.i
  %5 = load i32, ptr %_M_use_count.i.i.i.i.i.i.i, align 4
  %add.i.i.i.i.i.i.i.i = add nsw i32 %5, 1
  store i32 %add.i.i.i.i.i.i.i.i, ptr %_M_use_count.i.i.i.i.i.i.i, align 4
  br label %_ZNSt16allocator_traitsISaISt10shared_ptrIN19OpenColorIO_v2_4dev16XmlReaderElementEEEE9constructIS3_JRKS3_EEEvRS4_PT_DpOT0_.exit.i

if.else.i.i.i.i.i.i.i.i:                          ; preds = %if.then.i.i.i.i.i.i
  %6 = atomicrmw volatile add ptr %_M_use_count.i.i.i.i.i.i.i, i32 1 acq_rel, align 4
  br label %_ZNSt16allocator_traitsISaISt10shared_ptrIN19OpenColorIO_v2_4dev16XmlReaderElementEEEE9constructIS3_JRKS3_EEEvRS4_PT_DpOT0_.exit.i

_ZNSt16allocator_traitsISaISt10shared_ptrIN19OpenColorIO_v2_4dev16XmlReaderElementEEEE9constructIS3_JRKS3_EEEvRS4_PT_DpOT0_.exit.i: ; preds = %if.else.i.i.i.i.i.i.i.i, %if.then.i.i.i.i.i.i.i.i, %if.then.i
  %7 = load ptr, ptr %_M_finish.i, align 8
  %incdec.ptr.i = getelementptr inbounds i8, ptr %7, i64 16
  store ptr %incdec.ptr.i, ptr %_M_finish.i, align 8
  br label %_ZNSt6vectorISt10shared_ptrIN19OpenColorIO_v2_4dev16XmlReaderElementEESaIS3_EE9push_backERKS3_.exit

if.else.i:                                        ; preds = %entry
  %m_elms = getelementptr inbounds i8, ptr %this, i64 8
  tail call void @_ZNSt6vectorISt10shared_ptrIN19OpenColorIO_v2_4dev16XmlReaderElementEESaIS3_EE17_M_realloc_insertIJRKS3_EEEvN9__gnu_cxx17__normal_iteratorIPS3_S5_EEDpOT_(ptr noundef nonnull align 8 dereferenceable(24) %m_elms, ptr %0, ptr noundef nonnull align 8 dereferenceable(16) %pElt)
  br label %_ZNSt6vectorISt10shared_ptrIN19OpenColorIO_v2_4dev16XmlReaderElementEESaIS3_EE9push_backERKS3_.exit

_ZNSt6vectorISt10shared_ptrIN19OpenColorIO_v2_4dev16XmlReaderElementEESaIS3_EE9push_backERKS3_.exit: ; preds = %_ZNSt16allocator_traitsISaISt10shared_ptrIN19OpenColorIO_v2_4dev16XmlReaderElementEEEE9constructIS3_JRKS3_EEEvRS4_PT_DpOT0_.exit.i, %if.else.i
  ret void
}